target datalayout = "e-m:e-p270:32:32-p271:32:32-p272:64:64-i64:64-i128:128-f80:128-n8:16:32:64-S128"
target triple = "x86_64-pc-linux-gnu"

; Function Attrs: nounwind uwtable
define hidden i32 @filterDebugThreads(ptr noundef %0, i32 noundef %1) #0 {
  %3 = alloca ptr, align 8
  %4 = alloca i32, align 4
  %5 = alloca i32, align 4
  %6 = alloca i32, align 4
  %7 = alloca ptr, align 8
  store ptr %0, ptr %3, align 8
  store i32 %1, ptr %4, align 4
  store i32 0, ptr %5, align 4
  store i32 0, ptr %6, align 4
  br label %8

8:                                                ; preds = %35, %2
  %9 = load i32, ptr %5, align 4
  %10 = load i32, ptr %4, align 4
  %11 = icmp slt i32 %9, %10
  br i1 %11, label %12, label %38

12:                                               ; preds = %8
  %13 = load ptr, ptr %3, align 8
  %14 = load i32, ptr %5, align 4
  %15 = sext i32 %14 to i64
  %16 = getelementptr inbounds ptr, ptr %13, i64 %15
  %17 = load ptr, ptr %16, align 8
  store ptr %17, ptr %7, align 8
  %18 = load ptr, ptr %7, align 8
  %19 = call zeroext i8 @threadControl_isDebugThread(ptr noundef %18)
  %20 = icmp ne i8 %19, 0
  br i1 %20, label %34, label %21

21:                                               ; preds = %12
  %22 = load i32, ptr %5, align 4
  %23 = load i32, ptr %6, align 4
  %24 = icmp sgt i32 %22, %23
  br i1 %24, label %25, label %31

25:                                               ; preds = %21
  %26 = load ptr, ptr %7, align 8
  %27 = load ptr, ptr %3, align 8
  %28 = load i32, ptr %6, align 4
  %29 = sext i32 %28 to i64
  %30 = getelementptr inbounds ptr, ptr %27, i64 %29
  store ptr %26, ptr %30, align 8
  br label %31

31:                                               ; preds = %25, %21
  %32 = load i32, ptr %6, align 4
  %33 = add nsw i32 %32, 1
  store i32 %33, ptr %6, align 4
  br label %34

34:                                               ; preds = %31, %12
  br label %35

35:                                               ; preds = %34
  %36 = load i32, ptr %5, align 4
  %37 = add nsw i32 %36, 1
  store i32 %37, ptr %5, align 4
  br label %8, !llvm.loop !9

38:                                               ; preds = %8
  %39 = load i32, ptr %6, align 4
  ret i32 %39
}