; Function Attrs: nounwind uwtable
define hidden i32 @filterDebugThreads(ptr nocapture noundef %0, i32 noundef %1) local_unnamed_addr #0 {
  %3 = icmp sgt i32 %1, 0
  br i1 %3, label %.lr.ph.preheader, label %._crit_edge

.lr.ph.preheader:                                 ; preds = %2
  %wide.trip.count = zext nneg i32 %1 to i64
  br label %.lr.ph

.lr.ph:                                           ; preds = %.lr.ph.preheader, %14
  %indvars.iv = phi i64 [ 0, %.lr.ph.preheader ], [ %indvars.iv.next, %14 ]
  %.01213 = phi i32 [ 0, %.lr.ph.preheader ], [ %.1, %14 ]
  %4 = getelementptr inbounds ptr, ptr %0, i64 %indvars.iv
  %5 = load ptr, ptr %4, align 8
  %6 = tail call zeroext i8 @threadControl_isDebugThread(ptr noundef %5) #14
  %.not = icmp eq i8 %6, 0
  br i1 %.not, label %7, label %14

7:                                                ; preds = %.lr.ph
  %8 = sext i32 %.01213 to i64
  %9 = icmp sgt i64 %indvars.iv, %8
  br i1 %9, label %10, label %12

10:                                               ; preds = %7
  %11 = getelementptr inbounds ptr, ptr %0, i64 %8
  store ptr %5, ptr %11, align 8
  br label %12

12:                                               ; preds = %10, %7
  %13 = add nsw i32 %.01213, 1
  br label %14

14:                                               ; preds = %.lr.ph, %12
  %.1 = phi i32 [ %.01213, %.lr.ph ], [ %13, %12 ]
  %indvars.iv.next = add nuw nsw i64 %indvars.iv, 1
  %exitcond.not = icmp eq i64 %indvars.iv.next, %wide.trip.count
  br i1 %exitcond.not, label %._crit_edge, label %.lr.ph, !llvm.loop !9

._crit_edge:                                      ; preds = %14, %2
  %.012.lcssa = phi i32 [ 0, %2 ], [ %.1, %14 ]
  ret i32 %.012.lcssa
}